; Function Attrs: nounwind uwtable
define ptr @CONF_get_string(ptr noundef %0, ptr noundef %1, ptr noundef %2) local_unnamed_addr #0 {
  %4 = alloca %struct.conf_st, align 8
  %5 = icmp eq ptr %0, null
  br i1 %5, label %6, label %9

6:                                                ; preds = %3
  %7 = tail call ptr @_CONF_get_string(ptr noundef null, ptr noundef %1, ptr noundef %2) #15
  %.not.i = icmp eq ptr %7, null
  br i1 %.not.i, label %8, label %NCONF_get_string.exit

8:                                                ; preds = %6
  tail call void @ERR_new() #15
  tail call void @ERR_set_debug(ptr noundef nonnull @.str.1, i32 noundef 313, ptr noundef nonnull @__func__.NCONF_get_string) #15
  tail call void (i32, i32, ptr, ...) @ERR_set_error(i32 noundef 14, i32 noundef 106, ptr noundef null) #15
  br label %NCONF_get_string.exit

9:                                                ; preds = %3
  call void @llvm.lifetime.start.p0(i64 48, ptr nonnull %4) #15
  %10 = load ptr, ptr @default_CONF_method, align 8, !tbaa !3
  %11 = icmp eq ptr %10, null
  br i1 %11, label %12, label %CONF_set_nconf.exit

12:                                               ; preds = %9
  %13 = tail call ptr @NCONF_default() #15
  store ptr %13, ptr @default_CONF_method, align 8, !tbaa !3
  br label %CONF_set_nconf.exit

CONF_set_nconf.exit:                              ; preds = %9, %12
  %14 = phi ptr [ %13, %12 ], [ %10, %9 ]
  %15 = getelementptr inbounds nuw i8, ptr %14, i64 16
  %16 = load ptr, ptr %15, align 8, !tbaa !8
  %17 = call i32 %16(ptr noundef nonnull %4) #15
  %18 = getelementptr inbounds nuw i8, ptr %4, i64 16
  store ptr %0, ptr %18, align 8, !tbaa !11
  %19 = call ptr @_CONF_get_string(ptr noundef nonnull %4, ptr noundef %1, ptr noundef %2) #15
  %.not.i8 = icmp eq ptr %19, null
  br i1 %.not.i8, label %20, label %NCONF_get_string.exit9

20:                                               ; preds = %CONF_set_nconf.exit
  call void @ERR_new() #15
  call void @ERR_set_debug(ptr noundef nonnull @.str.1, i32 noundef 316, ptr noundef nonnull @__func__.NCONF_get_string) #15
  call void (i32, i32, ptr, ...) @ERR_set_error(i32 noundef 14, i32 noundef 108, ptr noundef nonnull @.str.2, ptr noundef %1, ptr noundef %2) #15
  br label %NCONF_get_string.exit9

NCONF_get_string.exit9:                           ; preds = %CONF_set_nconf.exit, %20
  call void @llvm.lifetime.end.p0(i64 48, ptr nonnull %4) #15
  br label %NCONF_get_string.exit

NCONF_get_string.exit:                            ; preds = %8, %6, %NCONF_get_string.exit9
  %.0 = phi ptr [ %19, %NCONF_get_string.exit9 ], [ %7, %6 ], [ null, %8 ]
  ret ptr %.0
}